; Function Attrs: mustprogress uwtable
define hidden void @_ZN7grobner13init_equationEPNS_8equationEPN18dependency_managerIN25scoped_dependency_managerIPvE6configEE10dependencyE(ptr noundef nonnull align 8 dereferenceable(228) %this, ptr noundef %eq, ptr noundef %d) local_unnamed_addr #3 align 2 {
entry:
  %m_scopes.i = getelementptr inbounds i8, ptr %this, i64 184
  %0 = load ptr, ptr %m_scopes.i, align 8
  %cmp.i.i = icmp eq ptr %0, null
  br i1 %cmp.i.i, label %_ZNK7grobner15get_scope_levelEv.exit, label %if.end.i.i

if.end.i.i:                                       ; preds = %entry
  %arrayidx.i.i = getelementptr inbounds i8, ptr %0, i64 -4
  %1 = load i32, ptr %arrayidx.i.i, align 4
  br label %_ZNK7grobner15get_scope_levelEv.exit

_ZNK7grobner15get_scope_levelEv.exit:             ; preds = %entry, %if.end.i.i
  %retval.0.i.i = phi i32 [ %1, %if.end.i.i ], [ 0, %entry ]
  store i32 %retval.0.i.i, ptr %eq, align 8
  %m_equations_to_delete = getelementptr inbounds i8, ptr %this, i64 160
  %2 = load ptr, ptr %m_equations_to_delete, align 8
  %cmp.i = icmp eq ptr %2, null
  br i1 %cmp.i, label %_ZNK6vectorIPN7grobner8equationELb0EjE4sizeEv.exit, label %if.end.i

if.end.i:                                         ; preds = %_ZNK7grobner15get_scope_levelEv.exit
  %arrayidx.i = getelementptr inbounds i8, ptr %2, i64 -4
  %3 = load i32, ptr %arrayidx.i, align 4
  %4 = or i32 %3, -2147483648
  br label %_ZNK6vectorIPN7grobner8equationELb0EjE4sizeEv.exit

_ZNK6vectorIPN7grobner8equationELb0EjE4sizeEv.exit: ; preds = %_ZNK7grobner15get_scope_levelEv.exit, %if.end.i
  %retval.0.i = phi i32 [ %4, %if.end.i ], [ -2147483648, %_ZNK7grobner15get_scope_levelEv.exit ]
  %m_bidx = getelementptr inbounds i8, ptr %eq, i64 4
  %m_dep = getelementptr inbounds i8, ptr %eq, i64 16
  store ptr %d, ptr %m_dep, align 8
  store i32 %retval.0.i, ptr %m_bidx, align 4
  %5 = load ptr, ptr %m_equations_to_delete, align 8
  %cmp.i1 = icmp eq ptr %5, null
  br i1 %cmp.i1, label %if.then.i, label %lor.lhs.false.i

lor.lhs.false.i:                                  ; preds = %_ZNK6vectorIPN7grobner8equationELb0EjE4sizeEv.exit
  %arrayidx.i2 = getelementptr inbounds i8, ptr %5, i64 -4
  %6 = load i32, ptr %arrayidx.i2, align 4
  %arrayidx4.i = getelementptr inbounds i8, ptr %5, i64 -8
  %7 = load i32, ptr %arrayidx4.i, align 4
  %cmp5.i = icmp eq i32 %6, %7
  br i1 %cmp5.i, label %if.then.i, label %_ZN6vectorIPN7grobner8equationELb0EjE9push_backERKS2_.exit

if.then.i:                                        ; preds = %lor.lhs.false.i, %_ZNK6vectorIPN7grobner8equationELb0EjE4sizeEv.exit
  tail call void @_ZN6vectorIPN7grobner8equationELb0EjE13expand_vectorEv(ptr noundef nonnull align 8 dereferenceable(8) %m_equations_to_delete)
  %.pre.i = load ptr, ptr %m_equations_to_delete, align 8
  %arrayidx8.phi.trans.insert.i = getelementptr inbounds i8, ptr %.pre.i, i64 -4
  %.pre1.i = load i32, ptr %arrayidx8.phi.trans.insert.i, align 4
  br label %_ZN6vectorIPN7grobner8equationELb0EjE9push_backERKS2_.exit

_ZN6vectorIPN7grobner8equationELb0EjE9push_backERKS2_.exit: ; preds = %lor.lhs.false.i, %if.then.i
  %8 = phi i32 [ %.pre1.i, %if.then.i ], [ %6, %lor.lhs.false.i ]
  %9 = phi ptr [ %.pre.i, %if.then.i ], [ %5, %lor.lhs.false.i ]
  %idx.ext.i = zext i32 %8 to i64
  %add.ptr.i = getelementptr inbounds ptr, ptr %9, i64 %idx.ext.i
  store ptr %eq, ptr %add.ptr.i, align 8
  %10 = load ptr, ptr %m_equations_to_delete, align 8
  %arrayidx10.i = getelementptr inbounds i8, ptr %10, i64 -4
  %11 = load i32, ptr %arrayidx10.i, align 4
  %inc.i = add i32 %11, 1
  store i32 %inc.i, ptr %arrayidx10.i, align 4
  ret void
}